; Function Attrs: nounwind uwtable
define void @Abc_SclWriteScl(ptr noundef %0, ptr noundef readonly captures(none) %1) local_unnamed_addr #0 {
  %3 = tail call noalias dereferenceable_or_null(16) ptr @malloc(i64 noundef 16) #21
  %4 = getelementptr inbounds nuw i8, ptr %3, i64 4
  store i32 0, ptr %4, align 4, !tbaa !98
  store i32 10000, ptr %3, align 8, !tbaa !97
  %5 = tail call noalias dereferenceable_or_null(10000) ptr @malloc(i64 noundef 10000) #21
  %6 = getelementptr inbounds nuw i8, ptr %3, i64 8
  store ptr %5, ptr %6, align 8, !tbaa !59
  tail call fastcc void @Abc_SclWriteLibrary(ptr noundef nonnull %3, ptr noundef %1, i32 noundef 0, i32 noundef 0)
  %.val12 = load i32, ptr %4, align 4, !tbaa !98
  %7 = icmp sgt i32 %.val12, 0
  br i1 %7, label %8, label %17

8:                                                ; preds = %2
  %9 = tail call noalias ptr @fopen(ptr noundef %0, ptr noundef nonnull @.str.2)
  %10 = icmp eq ptr %9, null
  br i1 %10, label %11, label %13

11:                                               ; preds = %8
  %12 = tail call i32 (ptr, ...) @printf(ptr noundef nonnull dereferenceable(1) @.str.3, ptr noundef %0)
  br label %17

13:                                               ; preds = %8
  %.val = load ptr, ptr %6, align 8, !tbaa !59
  %.val11 = load i32, ptr %4, align 4, !tbaa !98
  %14 = sext i32 %.val11 to i64
  %15 = tail call i64 @fwrite(ptr noundef %.val, i64 noundef 1, i64 noundef %14, ptr noundef nonnull %9)
  %16 = tail call i32 @fclose(ptr noundef nonnull %9)
  br label %17

17:                                               ; preds = %11, %13, %2
  %18 = load ptr, ptr %6, align 8, !tbaa !59
  %.not.i = icmp eq ptr %18, null
  br i1 %.not.i, label %Vec_StrFree.exit, label %19

19:                                               ; preds = %17
  tail call void @free(ptr noundef nonnull %18) #19
  br label %Vec_StrFree.exit

Vec_StrFree.exit:                                 ; preds = %17, %19
  tail call void @free(ptr noundef nonnull %3) #19
  ret void
}